target datalayout = "e-m:e-p270:32:32-p271:32:32-p272:64:64-i64:64-i128:128-f80:128-n8:16:32:64-S128"
target triple = "x86_64-pc-linux-gnu"

@work_mem = external global i32, align 4
@hash_mem_multiplier = external global double, align 8

; Function Attrs: nounwind uwtable
define dso_local i64 @get_hash_memory_limit() #0 {
  %1 = alloca double, align 8
  call void @llvm.lifetime.start.p0(i64 8, ptr %1) #9
  %2 = load i32, ptr @work_mem, align 4
  %3 = sitofp i32 %2 to double
  %4 = load double, ptr @hash_mem_multiplier, align 8
  %5 = fmul double %3, %4
  %6 = fmul double %5, 1.024000e+03
  store double %6, ptr %1, align 8
  %7 = load double, ptr %1, align 8
  %8 = fcmp olt double %7, 0x43F0000000000000
  br i1 %8, label %9, label %11

9:                                                ; preds = %0
  %10 = load double, ptr %1, align 8
  br label %12

11:                                               ; preds = %0
  br label %12

12:                                               ; preds = %11, %9
  %13 = phi double [ %10, %9 ], [ 0x43F0000000000000, %11 ]
  store double %13, ptr %1, align 8
  %14 = load double, ptr %1, align 8
  %15 = fptoui double %14 to i64
  call void @llvm.lifetime.end.p0(i64 8, ptr %1) #9
  ret i64 %15
}