; Function Attrs: mustprogress nofree norecurse nosync nounwind willreturn memory(read, argmem: none, inaccessiblemem: none) uwtable
define dso_local i64 @get_hash_memory_limit() local_unnamed_addr #5 {
  %1 = load i32, ptr @work_mem, align 4
  %2 = sitofp i32 %1 to double
  %3 = load double, ptr @hash_mem_multiplier, align 8
  %4 = fmul double %3, %2
  %5 = fmul double %4, 1.024000e+03
  %6 = fcmp olt double %5, 0x43F0000000000000
  %7 = select i1 %6, double %5, double 0x43F0000000000000
  %8 = fptoui double %7 to i64
  ret i64 %8
}